target datalayout = "e-m:e-p270:32:32-p271:32:32-p272:64:64-i64:64-i128:128-f80:128-n8:16:32:64-S128"
target triple = "x86_64-unknown-linux-gnu"

%struct.BlockDriverState = type { i32, i8, i8, i8, i8, i8, ptr, ptr, ptr, %struct.anon, i8, [4096 x i8], [4096 x i8], [4096 x i8], [16 x i8], ptr, [4096 x i8], %struct.BlockLimits, i32, i32, i32, i32, [32 x i8], %union.anon, %union.anon.0, %union.anon.1, i32, [16 x %struct.anon.2], ptr, %struct.anon.3, ptr, ptr, %struct.anon.4, ptr, ptr, i32, ptr, i64, i64, %struct.QemuMutex, %struct.anon.5, %struct.Stat64, i32, i32, i32, i32, i32, i32, %struct.QemuMutex, %struct.anon.6, %struct.CoQueue, i8, i32, i8, %struct.CoMutex, ptr, ptr }
%struct.anon = type { ptr }
%struct.BlockLimits = type { i32, i64, i32, i64, i32, i32, i32, i64, i32, i64, i64, i32, i8, i32, i32, i32, i32, i32, i32, i32 }
%union.anon = type { %struct.QTailQLink }
%struct.QTailQLink = type { ptr, ptr }
%union.anon.0 = type { %struct.QTailQLink }
%union.anon.1 = type { %struct.QTailQLink }
%struct.anon.2 = type { ptr }
%struct.anon.3 = type { ptr }
%struct.anon.4 = type { ptr }
%struct.anon.5 = type { ptr }
%struct.Stat64 = type { i64 }
%struct.QemuMutex = type { %union.pthread_mutex_t, i8 }
%union.pthread_mutex_t = type { %struct.__pthread_mutex_s }
%struct.__pthread_mutex_s = type { i32, i32, i32, i32, i32, i16, i16, %struct.__pthread_internal_list }
%struct.__pthread_internal_list = type { ptr, ptr }
%struct.anon.6 = type { ptr }
%struct.CoQueue = type { %struct.anon.7 }
%struct.anon.7 = type { ptr, ptr }
%struct.CoMutex = type { i32, ptr, %struct.anon.8, %struct.anon.8, i32, i32, ptr }
%struct.anon.8 = type { ptr }
%struct.BDRVQcow2State = type { i32, i32, i32, i32, i32, i32, i32, i32, i32, i32, i32, i32, i32, i32, i64, i64, ptr, ptr, ptr, ptr, i32, %struct.anon.9, ptr, i64, i32, i32, i64, i64, %struct.CoMutex, %struct.Qcow2CryptoHeaderExtension, ptr, ptr, i8, i32, i64, i32, i32, ptr, i32, i64, i64, i32, i32, i8, i32, i32, i64, ptr, ptr, [5 x i8], i8, i32, i8, i64, i64, i64, i64, ptr, %struct.anon.10, %union.anon.11, i8, ptr, ptr, ptr, %struct.CoQueue, i32, ptr, i8, i8, i32 }
%struct.anon.9 = type { ptr }
%struct.Qcow2CryptoHeaderExtension = type { i64, i64 }
%struct.anon.10 = type { ptr }
%union.anon.11 = type { %struct.QTailQLink }

@.str.1 = private unnamed_addr constant [31 x i8] c"../qemu/block/qcow2-refcount.c\00", align 1
@__func__.alloc_refblock = private unnamed_addr constant [15 x i8] c"alloc_refblock\00", align 1
@.str.117 = private unnamed_addr constant [102 x i8] c"This operation would make the refcount table grow beyond the maximum size supported by QEMU, aborting\00", align 1
@.str.118 = private unnamed_addr constant [40 x i8] c"Failed to increase reftable buffer size\00", align 1
@.str.119 = private unnamed_addr constant [28 x i8] c"Failed to allocate refblock\00", align 1

; Function Attrs: nounwind sspstrong uwtable
define internal i32 @alloc_refblock(ptr noundef %bs, ptr noundef %reftable, i64 noundef %reftable_index, ptr noundef %reftable_size, ptr noundef %refblock, i1 noundef zeroext %refblock_empty, ptr noundef %allocated, ptr noundef %errp) #0 {
entry:
  %retval = alloca i32, align 4
  %bs.addr = alloca ptr, align 8
  %reftable.addr = alloca ptr, align 8
  %reftable_index.addr = alloca i64, align 8
  %reftable_size.addr = alloca ptr, align 8
  %refblock.addr = alloca ptr, align 8
  %refblock_empty.addr = alloca i8, align 1
  %allocated.addr = alloca ptr, align 8
  %errp.addr = alloca ptr, align 8
  %s = alloca ptr, align 8
  %offset = alloca i64, align 8
  %new_reftable = alloca ptr, align 8
  %new_reftable_size = alloca i64, align 8
  store ptr %bs, ptr %bs.addr, align 8
  store ptr %reftable, ptr %reftable.addr, align 8
  store i64 %reftable_index, ptr %reftable_index.addr, align 8
  store ptr %reftable_size, ptr %reftable_size.addr, align 8
  store ptr %refblock, ptr %refblock.addr, align 8
  %frombool = zext i1 %refblock_empty to i8
  store i8 %frombool, ptr %refblock_empty.addr, align 1
  store ptr %allocated, ptr %allocated.addr, align 8
  store ptr %errp, ptr %errp.addr, align 8
  %0 = load ptr, ptr %bs.addr, align 8
  %opaque = getelementptr inbounds %struct.BlockDriverState, ptr %0, i32 0, i32 7
  %1 = load ptr, ptr %opaque, align 8
  store ptr %1, ptr %s, align 8
  %2 = load i8, ptr %refblock_empty.addr, align 1
  %tobool = trunc i8 %2 to i1
  br i1 %tobool, label %if.end14, label %land.lhs.true

land.lhs.true:                                    ; preds = %entry
  %3 = load i64, ptr %reftable_index.addr, align 8
  %4 = load ptr, ptr %reftable_size.addr, align 8
  %5 = load i64, ptr %4, align 8
  %cmp = icmp uge i64 %3, %5
  br i1 %cmp, label %if.then, label %if.end14

if.then:                                          ; preds = %land.lhs.true
  %6 = load i64, ptr %reftable_index.addr, align 8
  %add = add i64 %6, 1
  %7 = load ptr, ptr %s, align 8
  %cluster_size = getelementptr inbounds %struct.BDRVQcow2State, ptr %7, i32 0, i32 1
  %8 = load i32, ptr %cluster_size, align 4
  %conv = sext i32 %8 to i64
  %div = udiv i64 %conv, 8
  %add1 = add i64 %add, %div
  %sub = sub i64 %add1, 1
  %9 = load ptr, ptr %s, align 8
  %cluster_size2 = getelementptr inbounds %struct.BDRVQcow2State, ptr %9, i32 0, i32 1
  %10 = load i32, ptr %cluster_size2, align 4
  %conv3 = sext i32 %10 to i64
  %div4 = udiv i64 %conv3, 8
  %sub5 = sub i64 0, %div4
  %and = and i64 %sub, %sub5
  store i64 %and, ptr %new_reftable_size, align 8
  %11 = load i64, ptr %new_reftable_size, align 8
  %cmp6 = icmp ugt i64 %11, 1048576
  br i1 %cmp6, label %if.then8, label %if.end

if.then8:                                         ; preds = %if.then
  %12 = load ptr, ptr %errp.addr, align 8
  call void (ptr, ptr, i32, ptr, ptr, ...) @error_setg_internal(ptr noundef %12, ptr noundef @.str.1, i32 noundef 3133, ptr noundef @__func__.alloc_refblock, ptr noundef @.str.117)
  store i32 -95, ptr %retval, align 4
  br label %return

if.end:                                           ; preds = %if.then
  %13 = load ptr, ptr %reftable.addr, align 8
  %14 = load ptr, ptr %13, align 8
  %15 = load i64, ptr %new_reftable_size, align 8
  %mul = mul i64 %15, 8
  %call = call ptr @g_try_realloc(ptr noundef %14, i64 noundef %mul)
  store ptr %call, ptr %new_reftable, align 8
  %16 = load ptr, ptr %new_reftable, align 8
  %tobool9 = icmp ne ptr %16, null
  br i1 %tobool9, label %if.end11, label %if.then10

if.then10:                                        ; preds = %if.end
  %17 = load ptr, ptr %errp.addr, align 8
  call void (ptr, ptr, i32, ptr, ptr, ...) @error_setg_internal(ptr noundef %17, ptr noundef @.str.1, i32 noundef 3140, ptr noundef @__func__.alloc_refblock, ptr noundef @.str.118)
  store i32 -12, ptr %retval, align 4
  br label %return

if.end11:                                         ; preds = %if.end
  %18 = load ptr, ptr %new_reftable, align 8
  %19 = load ptr, ptr %reftable_size.addr, align 8
  %20 = load i64, ptr %19, align 8
  %add.ptr = getelementptr i64, ptr %18, i64 %20
  %21 = load i64, ptr %new_reftable_size, align 8
  %22 = load ptr, ptr %reftable_size.addr, align 8
  %23 = load i64, ptr %22, align 8
  %sub12 = sub i64 %21, %23
  %mul13 = mul i64 %sub12, 8
  call void @llvm.memset.p0.i64(ptr align 8 %add.ptr, i8 0, i64 %mul13, i1 false)
  %24 = load ptr, ptr %new_reftable, align 8
  %25 = load ptr, ptr %reftable.addr, align 8
  store ptr %24, ptr %25, align 8
  %26 = load i64, ptr %new_reftable_size, align 8
  %27 = load ptr, ptr %reftable_size.addr, align 8
  store i64 %26, ptr %27, align 8
  br label %if.end14

if.end14:                                         ; preds = %if.end11, %land.lhs.true, %entry
  %28 = load i8, ptr %refblock_empty.addr, align 1
  %tobool15 = trunc i8 %28 to i1
  br i1 %tobool15, label %if.end30, label %land.lhs.true16

land.lhs.true16:                                  ; preds = %if.end14
  %29 = load ptr, ptr %reftable.addr, align 8
  %30 = load ptr, ptr %29, align 8
  %31 = load i64, ptr %reftable_index.addr, align 8
  %arrayidx = getelementptr i64, ptr %30, i64 %31
  %32 = load i64, ptr %arrayidx, align 8
  %tobool17 = icmp ne i64 %32, 0
  br i1 %tobool17, label %if.end30, label %if.then18

if.then18:                                        ; preds = %land.lhs.true16
  %33 = load ptr, ptr %bs.addr, align 8
  %34 = load ptr, ptr %s, align 8
  %cluster_size19 = getelementptr inbounds %struct.BDRVQcow2State, ptr %34, i32 0, i32 1
  %35 = load i32, ptr %cluster_size19, align 4
  %conv20 = sext i32 %35 to i64
  %call21 = call i64 @qcow2_alloc_clusters(ptr noundef %33, i64 noundef %conv20)
  store i64 %call21, ptr %offset, align 8
  %36 = load i64, ptr %offset, align 8
  %cmp22 = icmp slt i64 %36, 0
  br i1 %cmp22, label %if.then24, label %if.end28

if.then24:                                        ; preds = %if.then18
  %37 = load ptr, ptr %errp.addr, align 8
  %38 = load i64, ptr %offset, align 8
  %sub25 = sub i64 0, %38
  %conv26 = trunc i64 %sub25 to i32
  call void (ptr, ptr, i32, ptr, i32, ptr, ...) @error_setg_errno_internal(ptr noundef %37, ptr noundef @.str.1, i32 noundef 3154, ptr noundef @__func__.alloc_refblock, i32 noundef %conv26, ptr noundef @.str.119)
  %39 = load i64, ptr %offset, align 8
  %conv27 = trunc i64 %39 to i32
  store i32 %conv27, ptr %retval, align 4
  br label %return

if.end28:                                         ; preds = %if.then18
  %40 = load i64, ptr %offset, align 8
  %41 = load ptr, ptr %reftable.addr, align 8
  %42 = load ptr, ptr %41, align 8
  %43 = load i64, ptr %reftable_index.addr, align 8
  %arrayidx29 = getelementptr i64, ptr %42, i64 %43
  store i64 %40, ptr %arrayidx29, align 8
  %44 = load ptr, ptr %allocated.addr, align 8
  store i8 1, ptr %44, align 1
  br label %if.end30

if.end30:                                         ; preds = %if.end28, %land.lhs.true16, %if.end14
  store i32 0, ptr %retval, align 4
  br label %return

return:                                           ; preds = %if.end30, %if.then24, %if.then10, %if.then8
  %45 = load i32, ptr %retval, align 4
  ret i32 %45
}