; Function Attrs: nounwind sspstrong uwtable
define internal i32 @alloc_refblock(ptr noundef %bs, ptr noundef captures(none) %reftable, i64 noundef %reftable_index, ptr noundef captures(none) %reftable_size, ptr readnone captures(none) %refblock, i1 noundef zeroext %refblock_empty, ptr noundef writeonly captures(none) %allocated, ptr noundef %errp) #0 {
entry:
  %opaque = getelementptr inbounds nuw i8, ptr %bs, i64 24
  %0 = load ptr, ptr %opaque, align 8
  br i1 %refblock_empty, label %return, label %land.lhs.true

land.lhs.true:                                    ; preds = %entry
  %1 = load i64, ptr %reftable_size, align 8
  %cmp.not = icmp ult i64 %reftable_index, %1
  br i1 %cmp.not, label %land.lhs.true16, label %if.then

if.then:                                          ; preds = %land.lhs.true
  %cluster_size = getelementptr inbounds nuw i8, ptr %0, i64 4
  %2 = load i32, ptr %cluster_size, align 4
  %conv = sext i32 %2 to i64
  %div24 = lshr i64 %conv, 3
  %sub = add i64 %div24, %reftable_index
  %sub5 = sub nsw i64 0, %div24
  %and = and i64 %sub, %sub5
  %cmp6 = icmp ugt i64 %and, 1048576
  br i1 %cmp6, label %if.then8, label %if.end

if.then8:                                         ; preds = %if.then
  tail call void (ptr, ptr, i32, ptr, ptr, ...) @error_setg_internal(ptr noundef %errp, ptr noundef nonnull @.str.1, i32 noundef 3133, ptr noundef nonnull @__func__.alloc_refblock, ptr noundef nonnull @.str.117) #17
  br label %return

if.end:                                           ; preds = %if.then
  %3 = load ptr, ptr %reftable, align 8
  %mul = shl nuw nsw i64 %and, 3
  %call = tail call ptr @g_try_realloc(ptr noundef %3, i64 noundef %mul) #17
  %tobool9.not = icmp eq ptr %call, null
  br i1 %tobool9.not, label %if.then10, label %if.end11

if.then10:                                        ; preds = %if.end
  tail call void (ptr, ptr, i32, ptr, ptr, ...) @error_setg_internal(ptr noundef %errp, ptr noundef nonnull @.str.1, i32 noundef 3140, ptr noundef nonnull @__func__.alloc_refblock, ptr noundef nonnull @.str.118) #17
  br label %return

if.end11:                                         ; preds = %if.end
  %4 = load i64, ptr %reftable_size, align 8
  %add.ptr = getelementptr i64, ptr %call, i64 %4
  %sub12 = sub i64 %and, %4
  %mul13 = shl i64 %sub12, 3
  tail call void @llvm.memset.p0.i64(ptr align 8 %add.ptr, i8 0, i64 %mul13, i1 false)
  store ptr %call, ptr %reftable, align 8
  store i64 %and, ptr %reftable_size, align 8
  br label %land.lhs.true16

land.lhs.true16:                                  ; preds = %land.lhs.true, %if.end11
  %5 = load ptr, ptr %reftable, align 8
  %arrayidx = getelementptr i64, ptr %5, i64 %reftable_index
  %6 = load i64, ptr %arrayidx, align 8
  %tobool17.not = icmp eq i64 %6, 0
  br i1 %tobool17.not, label %if.then18, label %return

if.then18:                                        ; preds = %land.lhs.true16
  %cluster_size19 = getelementptr inbounds nuw i8, ptr %0, i64 4
  %7 = load i32, ptr %cluster_size19, align 4
  %conv20 = sext i32 %7 to i64
  %call21 = tail call i64 @qcow2_alloc_clusters(ptr noundef nonnull %bs, i64 noundef %conv20)
  %cmp22 = icmp slt i64 %call21, 0
  br i1 %cmp22, label %if.then24, label %if.end28

if.then24:                                        ; preds = %if.then18
  %8 = trunc i64 %call21 to i32
  %conv26 = sub i32 0, %8
  tail call void (ptr, ptr, i32, ptr, i32, ptr, ...) @error_setg_errno_internal(ptr noundef %errp, ptr noundef nonnull @.str.1, i32 noundef 3154, ptr noundef nonnull @__func__.alloc_refblock, i32 noundef %conv26, ptr noundef nonnull @.str.119) #17
  br label %return

if.end28:                                         ; preds = %if.then18
  %9 = load ptr, ptr %reftable, align 8
  %arrayidx29 = getelementptr i64, ptr %9, i64 %reftable_index
  store i64 %call21, ptr %arrayidx29, align 8
  store i8 1, ptr %allocated, align 1
  br label %return

return:                                           ; preds = %land.lhs.true16, %if.end28, %entry, %if.then24, %if.then10, %if.then8
  %retval.0 = phi i32 [ %8, %if.then24 ], [ -95, %if.then8 ], [ -12, %if.then10 ], [ 0, %entry ], [ 0, %if.end28 ], [ 0, %land.lhs.true16 ]
  ret i32 %retval.0
}